; Function Attrs: mustprogress uwtable
define void @_ZN8QuantLib20CPIVolatilitySurfaceC2EjRKNS_8CalendarENS_21BusinessDayConventionERKNS_10DayCounterERKNS_6PeriodENS_9FrequencyEb(ptr noundef nonnull align 8 dereferenceable(93) %this, ptr noundef %vtt, i32 noundef %settlementDays, ptr noundef nonnull align 8 dereferenceable(16) %cal, i32 noundef %bdc, ptr noundef nonnull align 8 dereferenceable(16) %dc, ptr nocapture noundef nonnull readonly align 4 dereferenceable(8) %observationLag, i32 noundef %frequency, i1 noundef zeroext %indexIsInterpolated) unnamed_addr #6 align 2 personality ptr @__gxx_personality_v0 {
invoke.cont:
  %0 = getelementptr inbounds i8, ptr %vtt, i64 8
  tail call void @_ZN8QuantLib23VolatilityTermStructureC2EjRKNS_8CalendarENS_21BusinessDayConventionERKNS_10DayCounterE(ptr noundef nonnull align 8 dereferenceable(68) %this, ptr noundef nonnull %0, i32 noundef %settlementDays, ptr noundef nonnull align 8 dereferenceable(16) %cal, i32 noundef %bdc, ptr noundef nonnull align 8 dereferenceable(16) %dc)
  %1 = load ptr, ptr %vtt, align 8
  store ptr %1, ptr %this, align 8, !tbaa !22
  %2 = getelementptr inbounds i8, ptr %vtt, i64 56
  %3 = load ptr, ptr %2, align 8
  %vbase.offset.ptr = getelementptr i8, ptr %1, i64 -24
  %vbase.offset = load i64, ptr %vbase.offset.ptr, align 8
  %add.ptr = getelementptr inbounds i8, ptr %this, i64 %vbase.offset
  store ptr %3, ptr %add.ptr, align 8, !tbaa !22
  %4 = getelementptr inbounds i8, ptr %vtt, i64 64
  %5 = load ptr, ptr %4, align 8
  %vtable3 = load ptr, ptr %this, align 8, !tbaa !22
  %vbase.offset.ptr4 = getelementptr i8, ptr %vtable3, i64 -32
  %vbase.offset5 = load i64, ptr %vbase.offset.ptr4, align 8
  %add.ptr6 = getelementptr inbounds i8, ptr %this, i64 %vbase.offset5
  store ptr %5, ptr %add.ptr6, align 8, !tbaa !22
  %baseLevel_ = getelementptr inbounds nuw i8, ptr %this, i64 72
  %storedv = zext i1 %indexIsInterpolated to i8
  store double 0x47EFFFFFE0000000, ptr %baseLevel_, align 8, !tbaa !24
  %observationLag_ = getelementptr inbounds nuw i8, ptr %this, i64 80
  %6 = load i64, ptr %observationLag, align 4
  store i64 %6, ptr %observationLag_, align 8
  %frequency_ = getelementptr inbounds nuw i8, ptr %this, i64 88
  store i32 %frequency, ptr %frequency_, align 8, !tbaa !30
  %indexIsInterpolated_ = getelementptr inbounds nuw i8, ptr %this, i64 92
  store i8 %storedv, ptr %indexIsInterpolated_, align 4, !tbaa !31
  ret void
}